; Function Attrs: nounwind uwtable
define internal void @drbg_hash_free(ptr noundef %0) #0 {
  %.not = icmp eq ptr %0, null
  br i1 %.not, label %8, label %2

2:                                                ; preds = %1
  %3 = getelementptr inbounds nuw i8, ptr %0, i64 240
  %4 = load ptr, ptr %3, align 8, !tbaa !3
  %.not8 = icmp eq ptr %4, null
  br i1 %.not8, label %8, label %5

5:                                                ; preds = %2
  %6 = getelementptr inbounds nuw i8, ptr %4, i64 24
  %7 = load ptr, ptr %6, align 8, !tbaa !12
  tail call void @EVP_MD_CTX_free(ptr noundef %7) #6
  tail call void @ossl_prov_digest_reset(ptr noundef nonnull %4) #6
  tail call void @CRYPTO_secure_clear_free(ptr noundef nonnull %4, i64 noundef 376, ptr noundef nonnull @.str, i32 noundef 461) #6
  br label %8

8:                                                ; preds = %5, %2, %1
  tail call void @ossl_rand_drbg_free(ptr noundef %0) #6
  ret void
}